#include <math.h>
#include <stdio.h>
#include <stdlib.h>
#include <string.h>

int main(){
    int n,c[500],max=0,z;
    scanf("%d",&n);
    char a[500];
    scanf("%s",a);
    for(int i=0;i<=strlen(a)-n;i++){
            c[i]=1;
           for(int j=i+1;j<=strlen(a)-n;j++){
                   z=1;
                   for(int k=0;k<n;k++){
                   if(a[i+k]!=a[j+k])
                   z=0;
                   }
                   if(z==1)
                     c[i]++;
           }
           if(c[i]>max)
             max=c[i];
    }
    if(max==1)
    printf("NO");
    else{
    printf("%d\n",max);
    for(int i=0;i<=strlen(a)-n;i++){
            if(c[i]==max){
                          for(int k=0;k<n-1;k++){
                                  printf("%c",a[i+k]);
                                  }
                          printf("%c\n",a[i+n-1]);
                          }
            }
}
    return 0;
}