; ModuleID = '51/76.c'
source_filename = "51/76.c"
target datalayout = "e-m:e-p270:32:32-p271:32:32-p272:64:64-i64:64-f80:128-n8:16:32:64-S128"
target triple = "x86_64-pc-linux-gnu"

@.str = private unnamed_addr constant [3 x i8] c"%d\00", align 1
@.str.1 = private unnamed_addr constant [3 x i8] c"%s\00", align 1
@.str.2 = private unnamed_addr constant [3 x i8] c"NO\00", align 1
@.str.3 = private unnamed_addr constant [4 x i8] c"%d\0A\00", align 1
@.str.4 = private unnamed_addr constant [3 x i8] c"%c\00", align 1
@.str.5 = private unnamed_addr constant [4 x i8] c"%c\0A\00", align 1

; Function Attrs: noinline nounwind uwtable
define dso_local i32 @main() #0 {
  %1 = alloca i32, align 4
  %2 = alloca i32, align 4
  %3 = alloca [500 x i32], align 16
  %4 = alloca i32, align 4
  %5 = alloca i32, align 4
  %6 = alloca [500 x i8], align 16
  %7 = alloca i32, align 4
  %8 = alloca i32, align 4
  %9 = alloca i32, align 4
  %10 = alloca i32, align 4
  %11 = alloca i32, align 4
  store i32 0, i32* %1, align 4
  store i32 0, i32* %4, align 4
  %12 = call i32 (i8*, ...) @__isoc99_scanf(i8* getelementptr inbounds ([3 x i8], [3 x i8]* @.str, i64 0, i64 0), i32* %2)
  %13 = getelementptr inbounds [500 x i8], [500 x i8]* %6, i64 0, i64 0
  %14 = call i32 (i8*, ...) @__isoc99_scanf(i8* getelementptr inbounds ([3 x i8], [3 x i8]* @.str.1, i64 0, i64 0), i8* %13)
  store i32 0, i32* %7, align 4
  br label %15

15:                                               ; preds = %91, %0
  %16 = load i32, i32* %7, align 4
  %17 = sext i32 %16 to i64
  %18 = getelementptr inbounds [500 x i8], [500 x i8]* %6, i64 0, i64 0
  %19 = call i64 @strlen(i8* %18) #3
  %20 = load i32, i32* %2, align 4
  %21 = sext i32 %20 to i64
  %22 = sub i64 %19, %21
  %23 = icmp ule i64 %17, %22
  br i1 %23, label %24, label %94

24:                                               ; preds = %15
  %25 = load i32, i32* %7, align 4
  %26 = sext i32 %25 to i64
  %27 = getelementptr inbounds [500 x i32], [500 x i32]* %3, i64 0, i64 %26
  store i32 1, i32* %27, align 4
  %28 = load i32, i32* %7, align 4
  %29 = add nsw i32 %28, 1
  store i32 %29, i32* %8, align 4
  br label %30

30:                                               ; preds = %75, %24
  %31 = load i32, i32* %8, align 4
  %32 = sext i32 %31 to i64
  %33 = getelementptr inbounds [500 x i8], [500 x i8]* %6, i64 0, i64 0
  %34 = call i64 @strlen(i8* %33) #3
  %35 = load i32, i32* %2, align 4
  %36 = sext i32 %35 to i64
  %37 = sub i64 %34, %36
  %38 = icmp ule i64 %32, %37
  br i1 %38, label %39, label %78

39:                                               ; preds = %30
  store i32 1, i32* %5, align 4
  store i32 0, i32* %9, align 4
  br label %40

40:                                               ; preds = %62, %39
  %41 = load i32, i32* %9, align 4
  %42 = load i32, i32* %2, align 4
  %43 = icmp slt i32 %41, %42
  br i1 %43, label %44, label %65

44:                                               ; preds = %40
  %45 = load i32, i32* %7, align 4
  %46 = load i32, i32* %9, align 4
  %47 = add nsw i32 %45, %46
  %48 = sext i32 %47 to i64
  %49 = getelementptr inbounds [500 x i8], [500 x i8]* %6, i64 0, i64 %48
  %50 = load i8, i8* %49, align 1
  %51 = sext i8 %50 to i32
  %52 = load i32, i32* %8, align 4
  %53 = load i32, i32* %9, align 4
  %54 = add nsw i32 %52, %53
  %55 = sext i32 %54 to i64
  %56 = getelementptr inbounds [500 x i8], [500 x i8]* %6, i64 0, i64 %55
  %57 = load i8, i8* %56, align 1
  %58 = sext i8 %57 to i32
  %59 = icmp ne i32 %51, %58
  br i1 %59, label %60, label %61

60:                                               ; preds = %44
  store i32 0, i32* %5, align 4
  br label %61

61:                                               ; preds = %60, %44
  br label %62

62:                                               ; preds = %61
  %63 = load i32, i32* %9, align 4
  %64 = add nsw i32 %63, 1
  store i32 %64, i32* %9, align 4
  br label %40

65:                                               ; preds = %40
  %66 = load i32, i32* %5, align 4
  %67 = icmp eq i32 %66, 1
  br i1 %67, label %68, label %74

68:                                               ; preds = %65
  %69 = load i32, i32* %7, align 4
  %70 = sext i32 %69 to i64
  %71 = getelementptr inbounds [500 x i32], [500 x i32]* %3, i64 0, i64 %70
  %72 = load i32, i32* %71, align 4
  %73 = add nsw i32 %72, 1
  store i32 %73, i32* %71, align 4
  br label %74

74:                                               ; preds = %68, %65
  br label %75

75:                                               ; preds = %74
  %76 = load i32, i32* %8, align 4
  %77 = add nsw i32 %76, 1
  store i32 %77, i32* %8, align 4
  br label %30

78:                                               ; preds = %30
  %79 = load i32, i32* %7, align 4
  %80 = sext i32 %79 to i64
  %81 = getelementptr inbounds [500 x i32], [500 x i32]* %3, i64 0, i64 %80
  %82 = load i32, i32* %81, align 4
  %83 = load i32, i32* %4, align 4
  %84 = icmp sgt i32 %82, %83
  br i1 %84, label %85, label %90

85:                                               ; preds = %78
  %86 = load i32, i32* %7, align 4
  %87 = sext i32 %86 to i64
  %88 = getelementptr inbounds [500 x i32], [500 x i32]* %3, i64 0, i64 %87
  %89 = load i32, i32* %88, align 4
  store i32 %89, i32* %4, align 4
  br label %90

90:                                               ; preds = %85, %78
  br label %91

91:                                               ; preds = %90
  %92 = load i32, i32* %7, align 4
  %93 = add nsw i32 %92, 1
  store i32 %93, i32* %7, align 4
  br label %15

94:                                               ; preds = %15
  %95 = load i32, i32* %4, align 4
  %96 = icmp eq i32 %95, 1
  br i1 %96, label %97, label %99

97:                                               ; preds = %94
  %98 = call i32 (i8*, ...) @printf(i8* getelementptr inbounds ([3 x i8], [3 x i8]* @.str.2, i64 0, i64 0))
  br label %151

99:                                               ; preds = %94
  %100 = load i32, i32* %4, align 4
  %101 = call i32 (i8*, ...) @printf(i8* getelementptr inbounds ([4 x i8], [4 x i8]* @.str.3, i64 0, i64 0), i32 %100)
  store i32 0, i32* %10, align 4
  br label %102

102:                                              ; preds = %147, %99
  %103 = load i32, i32* %10, align 4
  %104 = sext i32 %103 to i64
  %105 = getelementptr inbounds [500 x i8], [500 x i8]* %6, i64 0, i64 0
  %106 = call i64 @strlen(i8* %105) #3
  %107 = load i32, i32* %2, align 4
  %108 = sext i32 %107 to i64
  %109 = sub i64 %106, %108
  %110 = icmp ule i64 %104, %109
  br i1 %110, label %111, label %150

111:                                              ; preds = %102
  %112 = load i32, i32* %10, align 4
  %113 = sext i32 %112 to i64
  %114 = getelementptr inbounds [500 x i32], [500 x i32]* %3, i64 0, i64 %113
  %115 = load i32, i32* %114, align 4
  %116 = load i32, i32* %4, align 4
  %117 = icmp eq i32 %115, %116
  br i1 %117, label %118, label %146

118:                                              ; preds = %111
  store i32 0, i32* %11, align 4
  br label %119

119:                                              ; preds = %133, %118
  %120 = load i32, i32* %11, align 4
  %121 = load i32, i32* %2, align 4
  %122 = sub nsw i32 %121, 1
  %123 = icmp slt i32 %120, %122
  br i1 %123, label %124, label %136

124:                                              ; preds = %119
  %125 = load i32, i32* %10, align 4
  %126 = load i32, i32* %11, align 4
  %127 = add nsw i32 %125, %126
  %128 = sext i32 %127 to i64
  %129 = getelementptr inbounds [500 x i8], [500 x i8]* %6, i64 0, i64 %128
  %130 = load i8, i8* %129, align 1
  %131 = sext i8 %130 to i32
  %132 = call i32 (i8*, ...) @printf(i8* getelementptr inbounds ([3 x i8], [3 x i8]* @.str.4, i64 0, i64 0), i32 %131)
  br label %133

133:                                              ; preds = %124
  %134 = load i32, i32* %11, align 4
  %135 = add nsw i32 %134, 1
  store i32 %135, i32* %11, align 4
  br label %119

136:                                              ; preds = %119
  %137 = load i32, i32* %10, align 4
  %138 = load i32, i32* %2, align 4
  %139 = add nsw i32 %137, %138
  %140 = sub nsw i32 %139, 1
  %141 = sext i32 %140 to i64
  %142 = getelementptr inbounds [500 x i8], [500 x i8]* %6, i64 0, i64 %141
  %143 = load i8, i8* %142, align 1
  %144 = sext i8 %143 to i32
  %145 = call i32 (i8*, ...) @printf(i8* getelementptr inbounds ([4 x i8], [4 x i8]* @.str.5, i64 0, i64 0), i32 %144)
  br label %146

146:                                              ; preds = %136, %111
  br label %147

147:                                              ; preds = %146
  %148 = load i32, i32* %10, align 4
  %149 = add nsw i32 %148, 1
  store i32 %149, i32* %10, align 4
  br label %102

150:                                              ; preds = %102
  br label %151

151:                                              ; preds = %150, %97
  ret i32 0
}

declare dso_local i32 @__isoc99_scanf(i8*, ...) #1

; Function Attrs: nounwind readonly
declare dso_local i64 @strlen(i8*) #2

declare dso_local i32 @printf(i8*, ...) #1


!llvm.module.flags = !{!0}
!llvm.ident = !{!1}

!0 = !{i32 1, !"wchar_size", i32 4}
!1 = !{!"clang version 10.0.0-4ubuntu1 "}
